; Function Attrs: null_pointer_is_valid sspstrong uwtable
define noundef zeroext i16 @de_gmm_drx_param(ptr noundef %0, ptr noundef %1, ptr readnone captures(none) %2, i32 noundef %3, i32 %4, ptr readnone captures(none) %5, i32 %6) #1 {
  %8 = load i32, ptr @hf_gsm_a_gmm_split_pg_cycle_code, align 4
  %9 = tail call ptr @proto_tree_add_item(ptr noundef %1, i32 noundef %8, ptr noundef %0, i32 noundef %3, i32 noundef 1, i32 noundef 0)
  %10 = add i32 %3, 1
  %11 = load i32, ptr @hf_gsm_a_gmm_cn_spec_drx_cycle_len_coef, align 4
  %12 = tail call ptr @proto_tree_add_item(ptr noundef %1, i32 noundef %11, ptr noundef %0, i32 noundef %10, i32 noundef 1, i32 noundef 0)
  %13 = load i32, ptr @hf_gsm_a_gmm_split_on_ccch, align 4
  %14 = tail call ptr @proto_tree_add_item(ptr noundef %1, i32 noundef %13, ptr noundef %0, i32 noundef %10, i32 noundef 1, i32 noundef 0)
  %15 = load i32, ptr @hf_gsm_a_gmm_non_drx_timer, align 4
  %16 = tail call ptr @proto_tree_add_item(ptr noundef %1, i32 noundef %15, ptr noundef %0, i32 noundef %10, i32 noundef 1, i32 noundef 0)
  ret i16 2
}